; Function Attrs: mustprogress nofree norecurse nosync nounwind willreturn memory(argmem: readwrite) uwtable
define dso_local void @cmsysBase64_Encode1(ptr noundef readonly captures(none) %0, ptr noundef writeonly captures(none) initializes((0, 4)) %1) local_unnamed_addr #0 {
  %3 = load i8, ptr %0, align 1, !tbaa !4
  %4 = lshr i8 %3, 2
  %5 = zext nneg i8 %4 to i64
  %6 = getelementptr inbounds nuw [65 x i8], ptr @kwsysBase64EncodeTable, i64 0, i64 %5
  %7 = load i8, ptr %6, align 1, !tbaa !4
  store i8 %7, ptr %1, align 1, !tbaa !4
  %8 = load i8, ptr %0, align 1, !tbaa !4
  %9 = zext i8 %8 to i64
  %10 = shl nuw nsw i64 %9, 4
  %11 = and i64 %10, 48
  %12 = getelementptr inbounds nuw [65 x i8], ptr @kwsysBase64EncodeTable, i64 0, i64 %11
  %13 = load i8, ptr %12, align 16, !tbaa !4
  %14 = getelementptr inbounds nuw i8, ptr %1, i64 1
  store i8 %13, ptr %14, align 1, !tbaa !4
  %15 = getelementptr inbounds nuw i8, ptr %1, i64 2
  store i8 61, ptr %15, align 1, !tbaa !4
  %16 = getelementptr inbounds nuw i8, ptr %1, i64 3
  store i8 61, ptr %16, align 1, !tbaa !4
  ret void
}